; Function Attrs: mustprogress uwtable
define void @_ZN16FilterDockDialog17changeCurrentMeshEi(ptr noundef nonnull align 8 dereferenceable(1048) %0, i32 noundef %1) local_unnamed_addr #9 align 2 {
  %3 = getelementptr inbounds i8, ptr %0, i64 48
  %4 = load ptr, ptr %3, align 8
  %5 = getelementptr inbounds i8, ptr %4, i64 104
  %6 = load ptr, ptr %5, align 8
  %7 = getelementptr inbounds i8, ptr %6, i64 40
  %8 = load ptr, ptr %7, align 8
  %9 = getelementptr inbounds i8, ptr %8, i64 8
  %10 = load i32, ptr %9, align 8
  %11 = and i32 %10, 32768
  %.not = icmp eq i32 %11, 0
  br i1 %.not, label %22, label %12

12:                                               ; preds = %2
  %13 = getelementptr inbounds i8, ptr %0, i64 120
  %14 = getelementptr inbounds i8, ptr %0, i64 1040
  %15 = load ptr, ptr %14, align 8
  %16 = tail call noundef zeroext i1 @_ZN14MeshModelState5applyEP9MeshModel(ptr noundef nonnull align 8 dereferenceable(436) %13, ptr noundef %15)
  %17 = getelementptr inbounds i8, ptr %0, i64 1032
  %18 = load ptr, ptr %17, align 8
  %19 = tail call noundef ptr @_ZN12MeshDocument7getMeshEj(ptr noundef nonnull align 8 dereferenceable(192) %18, i32 noundef %1)
  store ptr %19, ptr %14, align 8
  %20 = getelementptr inbounds i8, ptr %0, i64 96
  %21 = load i32, ptr %20, align 8
  tail call void @_ZN14MeshModelState6createEiP9MeshModel(ptr noundef nonnull align 8 dereferenceable(436) %13, i32 noundef %21, ptr noundef %19)
  tail call void @_ZN16FilterDockDialog12applyDynamicEv(ptr noundef nonnull align 8 dereferenceable(1048) %0)
  br label %22

22:                                               ; preds = %12, %2
  ret void
}